SF:/Users/jvepsalainen/github/jvepsalainen-nv-3/slang/source/compiler-core/slang-name.cpp
FN:8,_ZN5Slang7getTextEPNS_4NameE
FN:15,_ZN5Slang25getUnownedStringSliceTextEPNS_4NameE
FN:20,_ZN5Slang7getCstrEPNS_4NameE
FN:25,_ZN5Slang8NamePool7getNameENS_18UnownedStringSliceE
FN:37,_ZN5Slang8NamePool7getNameERKNS_6StringE
FN:42,_ZN5Slang8NamePool10tryGetNameERKNS_6StringE
FNDA:6028959,_ZN5Slang7getTextEPNS_4NameE
FNDA:0,_ZN5Slang25getUnownedStringSliceTextEPNS_4NameE
FNDA:4098,_ZN5Slang7getCstrEPNS_4NameE
FNDA:1050568,_ZN5Slang8NamePool7getNameENS_18UnownedStringSliceE
FNDA:583133,_ZN5Slang8NamePool7getNameERKNS_6StringE
FNDA:8,_ZN5Slang8NamePool10tryGetNameERKNS_6StringE
FNF:6
FNH:5
DA:8,6028959
DA:9,6028959
DA:10,78461
DA:11,5950498
DA:12,6028959
DA:15,0
DA:16,0
DA:17,0
DA:20,4098
DA:21,4098
DA:22,4098
DA:25,1050568
DA:26,1050568
DA:27,1050568
DA:28,771752
DA:30,278816
DA:31,278816
DA:32,278816
DA:33,278816
DA:34,1050568
DA:37,583133
DA:38,583133
DA:39,583133
DA:42,8
DA:43,8
DA:44,8
DA:45,8
DA:46,0
DA:47,8
BRDA:9,0,0,78461
BRDA:9,0,1,5950498
BRDA:16,0,0,-
BRDA:16,0,1,-
BRDA:21,0,0,4098
BRDA:21,0,1,0
BRDA:27,0,0,771752
BRDA:27,0,1,278816
BRDA:44,0,0,8
BRDA:44,0,1,0
BRF:10
BRH:6
LF:29
LH:25
end_of_record
SF:/Users/jvepsalainen/github/jvepsalainen-nv-3/slang/source/core/slang-semantic-version.h
FN:18,_ZN5Slang15SemanticVersionC2Ev
FN:23,_ZN5Slang15SemanticVersionC2Eiii
FN:28,_ZN5Slang15SemanticVersion5resetEv
FN:35,_ZNK5Slang15SemanticVersion5isSetEv
FN:38,_ZNK5Slang15SemanticVersion11getRawValueEv
FN:42,_ZN5Slang15SemanticVersion11setRawValueEy
FN:47,_ZN5Slang15SemanticVersion7fromRawEy
FN:54,_ZN5Slang15SemanticVersion3setEiii
FN:63,_ZNK5Slang15SemanticVersion11getHashCodeEv
FN:89,_ZNK5Slang15SemanticVersiongtERKS0_
FN:90,_ZNK5Slang15SemanticVersiongeERKS0_
FN:92,_ZNK5Slang15SemanticVersionltERKS0_
FN:93,_ZNK5Slang15SemanticVersionleERKS0_
FN:95,_ZNK5Slang15SemanticVersioneqERKS0_
FN:96,_ZNK5Slang15SemanticVersionneERKS0_
FN:119,_ZNK5Slang20MatchSemanticVersion18hasCompleteVersionEv
FN:121,_ZNK5Slang20MatchSemanticVersion10hasVersionEv
FN:124,_ZN5Slang20MatchSemanticVersion3setEx
FN:129,_ZN5Slang20MatchSemanticVersion3setExx
FN:134,_ZN5Slang20MatchSemanticVersion3setExxx
FN:142,_ZN5Slang20MatchSemanticVersion10makeFutureEv
FN:157,_ZN5Slang20MatchSemanticVersionC2Ev
FN:162,_ZN5Slang20MatchSemanticVersionC2ENS0_4KindERKNS_15SemanticVersionE
FNDA:4834,_ZN5Slang15SemanticVersionC2Ev
FNDA:606,_ZN5Slang15SemanticVersionC2Eiii
FNDA:0,_ZN5Slang15SemanticVersion5resetEv
FNDA:26,_ZNK5Slang15SemanticVersion5isSetEv
FNDA:562,_ZNK5Slang15SemanticVersion11getRawValueEv
FNDA:0,_ZN5Slang15SemanticVersion11setRawValueEy
FNDA:0,_ZN5Slang15SemanticVersion7fromRawEy
FNDA:42,_ZN5Slang15SemanticVersion3setEiii
FNDA:0,_ZNK5Slang15SemanticVersion11getHashCodeEv
FNDA:88,_ZNK5Slang15SemanticVersiongtERKS0_
FNDA:0,_ZNK5Slang15SemanticVersiongeERKS0_
FNDA:0,_ZNK5Slang15SemanticVersionltERKS0_
FNDA:0,_ZNK5Slang15SemanticVersionleERKS0_
FNDA:193,_ZNK5Slang15SemanticVersioneqERKS0_
FNDA:0,_ZNK5Slang15SemanticVersionneERKS0_
FNDA:0,_ZNK5Slang20MatchSemanticVersion18hasCompleteVersionEv
FNDA:0,_ZNK5Slang20MatchSemanticVersion10hasVersionEv
FNDA:0,_ZN5Slang20MatchSemanticVersion3setEx
FNDA:24,_ZN5Slang20MatchSemanticVersion3setExx
FNDA:0,_ZN5Slang20MatchSemanticVersion3setExxx
FNDA:0,_ZN5Slang20MatchSemanticVersion10makeFutureEv
FNDA:24,_ZN5Slang20MatchSemanticVersionC2Ev
FNDA:0,_ZN5Slang20MatchSemanticVersionC2ENS0_4KindERKNS_15SemanticVersionE
FNF:23
FNH:9
DA:18,4834
DA:19,4834
DA:20,4834
DA:23,606
DA:24,606
DA:25,606
DA:28,0
DA:29,0
DA:30,0
DA:31,0
DA:32,0
DA:35,26
DA:38,562
DA:39,562
DA:40,562
DA:42,0
DA:43,0
DA:44,0
DA:47,0
DA:48,0
DA:49,0
DA:50,0
DA:51,0
DA:54,42
DA:55,42
DA:57,42
DA:58,42
DA:59,42
DA:60,42
DA:63,0
DA:89,88
DA:90,0
DA:92,0
DA:93,0
DA:95,193
DA:96,0
DA:119,0
DA:121,0
DA:124,0
DA:125,0
DA:126,0
DA:127,0
DA:129,24
DA:130,24
DA:131,24
DA:132,24
DA:134,0
DA:135,0
DA:136,0
DA:137,0
DA:142,0
DA:143,0
DA:144,0
DA:145,0
DA:146,0
DA:157,24
DA:158,24
DA:159,24
DA:162,0
DA:163,0
BRDA:35,0,0,19
BRDA:35,0,1,7
BRDA:35,1,2,0
BRDA:35,1,3,7
BRDA:35,2,4,0
BRDA:35,2,5,7
BRDA:55,0,0,126
BRDA:55,0,1,0
BRF:12
BRH:7
LF:60
LH:25
end_of_record
SF:/Users/jvepsalainen/github/jvepsalainen-nv-3/slang/source/slang/slang-fossil.cpp
FN:29,_ZN5Slang6Fossil12getRootValueEP10ISlangBlob
FN:34,_ZN5Slang6Fossil12getRootValueEPKvm
FN:81,_ZNK5Slang6Fossil6ValRefINS_26FossilizedContainerObjBaseEE10getElementEx
FN:95,_ZNK5Slang22FossilizedRecordLayout8getFieldEx
FN:104,_ZNK5Slang6Fossil6ValRefINS_19FossilizedRecordValEE8getFieldEx
FNDA:0,_ZN5Slang6Fossil12getRootValueEP10ISlangBlob
FNDA:478,_ZN5Slang6Fossil12getRootValueEPKvm
FNDA:0,_ZNK5Slang6Fossil6ValRefINS_26FossilizedContainerObjBaseEE10getElementEx
FNDA:103580038,_ZNK5Slang22FossilizedRecordLayout8getFieldEx
FNDA:0,_ZNK5Slang6Fossil6ValRefINS_19FossilizedRecordValEE8getFieldEx
FNF:5
FNH:2
DA:29,0
DA:30,0
DA:31,0
DA:34,478
DA:35,478
DA:36,0
DA:37,0
DA:38,0
DA:45,478
DA:46,0
DA:47,0
DA:48,0
DA:53,478
DA:58,478
DA:59,0
DA:60,0
DA:61,0
DA:63,478
DA:64,478
DA:65,0
DA:66,0
DA:67,0
DA:69,478
DA:70,478
DA:71,0
DA:72,0
DA:73,0
DA:75,478
DA:76,478
DA:81,0
DA:82,0
DA:83,0
DA:85,0
DA:86,0
DA:87,0
DA:89,0
DA:90,0
DA:91,0
DA:92,0
DA:95,103580038
DA:96,103580038
DA:97,103580038
DA:99,103580038
DA:100,103580038
DA:101,103580038
DA:104,0
DA:105,0
DA:106,0
DA:108,0
DA:109,0
DA:111,0
DA:112,0
DA:113,0
DA:114,0
BRDA:35,0,0,0
BRDA:35,0,1,478
BRDA:45,0,0,0
BRDA:45,0,1,478
BRDA:58,0,0,0
BRDA:58,0,1,478
BRDA:64,0,0,0
BRDA:64,0,1,478
BRDA:70,0,0,0
BRDA:70,0,1,478
BRF:10
BRH:5
LF:54
LH:17
end_of_record
